(lp1
I2357
aI2412
aI2413
aI2420
aI2431
aI2450
aI2780
aI3001
aI3002
aI3003
aI3004
aI3005
aI3007
aI3009
aI3010
aI3020
aI3022
aI3023
aI3024
aI3030
aI3031
aI3032
aI3037
aI3039
aI30499
aI30503
aI30504
aI3062
aI3069
aI3070
aI3297
aI3298
aI3308
aI3460
aI3622
aI3660
aI3666
aI3710
aI3795
aI3895
aI41748
aI41769
aI44237
aI4445
aI4743
aI48183
aI4854
aI4861
aI48933
aI50304
aI50955
aI6141
aI61487
aI6179
aI6183
aI6215
a.